; Function Attrs: mustprogress nofree norecurse nosync nounwind willreturn memory(readwrite, inaccessiblemem: none) uwtable
define internal noundef range(i32 -1, 1) i32 @_ZL18luauF_writeintegerIhEiP9lua_StateP10lua_TValueS3_iS3_i(ptr readnone captures(none) %0, ptr readnone captures(none) %1, ptr noundef readonly captures(none) %2, i32 noundef %3, ptr noundef readonly captures(none) %4, i32 noundef %5) #9 {
  %7 = icmp sgt i32 %5, 2
  %8 = icmp slt i32 %3, 1
  %or.cond = and i1 %8, %7
  br i1 %or.cond, label %9, label %35

9:                                                ; preds = %6
  %10 = getelementptr inbounds nuw i8, ptr %2, i64 12
  %11 = load i32, ptr %10, align 4, !tbaa !4
  %12 = icmp eq i32 %11, 10
  br i1 %12, label %13, label %35

13:                                               ; preds = %9
  %14 = getelementptr inbounds nuw i8, ptr %4, i64 12
  %15 = load i32, ptr %14, align 4, !tbaa !4
  %16 = icmp eq i32 %15, 3
  br i1 %16, label %17, label %35

17:                                               ; preds = %13
  %18 = getelementptr inbounds nuw i8, ptr %4, i64 16
  %19 = getelementptr inbounds nuw i8, ptr %4, i64 28
  %20 = load i32, ptr %19, align 4, !tbaa !4
  %21 = icmp eq i32 %20, 3
  br i1 %21, label %22, label %35

22:                                               ; preds = %17
  %23 = load double, ptr %4, align 8, !tbaa !9
  %24 = fptosi double %23 to i32
  %25 = load ptr, ptr %2, align 8, !tbaa !9
  %26 = getelementptr inbounds nuw i8, ptr %25, i64 4
  %27 = load i32, ptr %26, align 4, !tbaa !79
  %.not = icmp ugt i32 %27, %24
  br i1 %.not, label %28, label %35

28:                                               ; preds = %22
  %29 = zext i32 %24 to i64
  %30 = load double, ptr %18, align 8, !tbaa !9
  %31 = fptosi double %30 to i64
  %32 = trunc i64 %31 to i8
  %33 = getelementptr inbounds nuw i8, ptr %25, i64 8
  %34 = getelementptr inbounds nuw i8, ptr %33, i64 %29
  store i8 %32, ptr %34, align 1
  br label %35

35:                                               ; preds = %6, %9, %13, %17, %28, %22
  %.1 = phi i32 [ 0, %28 ], [ -1, %22 ], [ -1, %17 ], [ -1, %13 ], [ -1, %9 ], [ -1, %6 ]
  ret i32 %.1
}